target datalayout = "e-m:e-p270:32:32-p271:32:32-p272:64:64-i64:64-i128:128-f80:128-n8:16:32:64-S128"
target triple = "x86_64-pc-linux-gnu"

%"class.mold::MultiGlob" = type <{ %"class.std::vector.0", %"class.std::unique_ptr", %"class.std::vector.7", %"struct.std::once_flag", i8, i8, [2 x i8] }>
%"class.std::vector.0" = type { %"struct.std::_Vector_base.1" }
%"struct.std::_Vector_base.1" = type { %"struct.std::_Vector_base<std::__cxx11::basic_string<char>, std::allocator<std::__cxx11::basic_string<char>>>::_Vector_impl" }
%"struct.std::_Vector_base<std::__cxx11::basic_string<char>, std::allocator<std::__cxx11::basic_string<char>>>::_Vector_impl" = type { %"struct.std::_Vector_base<std::__cxx11::basic_string<char>, std::allocator<std::__cxx11::basic_string<char>>>::_Vector_impl_data" }
%"struct.std::_Vector_base<std::__cxx11::basic_string<char>, std::allocator<std::__cxx11::basic_string<char>>>::_Vector_impl_data" = type { ptr, ptr, ptr }
%"class.std::unique_ptr" = type { %"struct.std::__uniq_ptr_data" }
%"struct.std::__uniq_ptr_data" = type { %"class.std::__uniq_ptr_impl" }
%"class.std::__uniq_ptr_impl" = type { %"class.std::tuple" }
%"class.std::tuple" = type { %"struct.std::_Tuple_impl" }
%"struct.std::_Tuple_impl" = type { %"struct.std::_Head_base.6" }
%"struct.std::_Head_base.6" = type { ptr }
%"class.std::vector.7" = type { %"struct.std::_Vector_base.8" }
%"struct.std::_Vector_base.8" = type { %"struct.std::_Vector_base<std::pair<mold::Glob, long>, std::allocator<std::pair<mold::Glob, long>>>::_Vector_impl" }
%"struct.std::_Vector_base<std::pair<mold::Glob, long>, std::allocator<std::pair<mold::Glob, long>>>::_Vector_impl" = type { %"struct.std::_Vector_base<std::pair<mold::Glob, long>, std::allocator<std::pair<mold::Glob, long>>>::_Vector_impl_data" }
%"struct.std::_Vector_base<std::pair<mold::Glob, long>, std::allocator<std::pair<mold::Glob, long>>>::_Vector_impl_data" = type { ptr, ptr, ptr }
%"struct.std::once_flag" = type { i32 }
%"struct.mold::MultiGlob::TrieNode" = type { i64, ptr, [256 x %"class.std::unique_ptr"] }

; Function Attrs: mustprogress nounwind
define linkonce_odr dso_local noundef nonnull align 8 dereferenceable(8) ptr @_ZNSt10_Head_baseILm0EPN4mold9MultiGlob8TrieNodeELb0EE7_M_headERKS4_(ptr noundef nonnull align 8 dereferenceable(8) %0) #4 comdat align 2 {
  %2 = alloca ptr, align 8
  store ptr %0, ptr %2, align 8, !tbaa !1168
  %3 = load ptr, ptr %2, align 8, !tbaa !1168
  %4 = getelementptr inbounds nuw %"struct.std::_Head_base.6", ptr %3, i32 0, i32 0
  ret ptr %4
}

; Function Attrs: mustprogress nounwind
define linkonce_odr dso_local noundef nonnull align 8 dereferenceable(8) ptr @_ZNSt11_Tuple_implILm0EJPN4mold9MultiGlob8TrieNodeESt14default_deleteIS2_EEE7_M_headERKS6_(ptr noundef nonnull align 8 dereferenceable(8) %0) #4 comdat align 2 {
  %2 = alloca ptr, align 8
  store ptr %0, ptr %2, align 8, !tbaa !1164
  %3 = load ptr, ptr %2, align 8, !tbaa !1164
  %4 = call noundef nonnull align 8 dereferenceable(8) ptr @_ZNSt10_Head_baseILm0EPN4mold9MultiGlob8TrieNodeELb0EE7_M_headERKS4_(ptr noundef nonnull align 8 dereferenceable(8) %3) #3
  ret ptr %4
}

; Function Attrs: mustprogress nounwind
define linkonce_odr dso_local noundef nonnull align 8 dereferenceable(8) ptr @_ZSt12__get_helperILm0EPN4mold9MultiGlob8TrieNodeEJSt14default_deleteIS2_EEERKT0_RKSt11_Tuple_implIXT_EJS6_DpT1_EE(ptr noundef nonnull align 8 dereferenceable(8) %0) #4 comdat {
  %2 = alloca ptr, align 8
  store ptr %0, ptr %2, align 8, !tbaa !1164
  %3 = load ptr, ptr %2, align 8, !tbaa !1164
  %4 = call noundef nonnull align 8 dereferenceable(8) ptr @_ZNSt11_Tuple_implILm0EJPN4mold9MultiGlob8TrieNodeESt14default_deleteIS2_EEE7_M_headERKS6_(ptr noundef nonnull align 8 dereferenceable(8) %3) #3
  ret ptr %4
}

; Function Attrs: mustprogress nounwind
define linkonce_odr dso_local noundef nonnull align 8 dereferenceable(8) ptr @_ZSt3getILm0EJPN4mold9MultiGlob8TrieNodeESt14default_deleteIS2_EEERKNSt13tuple_elementIXT_ESt5tupleIJDpT0_EEE4typeERKSA_(ptr noundef nonnull align 8 dereferenceable(8) %0) #4 comdat {
  %2 = alloca ptr, align 8
  store ptr %0, ptr %2, align 8, !tbaa !1162
  %3 = load ptr, ptr %2, align 8, !tbaa !1162
  %4 = call noundef nonnull align 8 dereferenceable(8) ptr @_ZSt12__get_helperILm0EPN4mold9MultiGlob8TrieNodeEJSt14default_deleteIS2_EEERKT0_RKSt11_Tuple_implIXT_EJS6_DpT1_EE(ptr noundef nonnull align 8 dereferenceable(8) %3) #3
  ret ptr %4
}

; Function Attrs: mustprogress nounwind
define linkonce_odr dso_local noundef ptr @_ZNKSt15__uniq_ptr_implIN4mold9MultiGlob8TrieNodeESt14default_deleteIS2_EE6_M_ptrEv(ptr noundef nonnull align 8 dereferenceable(8) %0) #4 comdat align 2 {
  %2 = alloca ptr, align 8
  store ptr %0, ptr %2, align 8, !tbaa !1160
  %3 = load ptr, ptr %2, align 8
  %4 = getelementptr inbounds nuw %"class.std::__uniq_ptr_impl", ptr %3, i32 0, i32 0
  %5 = call noundef nonnull align 8 dereferenceable(8) ptr @_ZSt3getILm0EJPN4mold9MultiGlob8TrieNodeESt14default_deleteIS2_EEERKNSt13tuple_elementIXT_ESt5tupleIJDpT0_EEE4typeERKSA_(ptr noundef nonnull align 8 dereferenceable(8) %4) #3
  %6 = load ptr, ptr %5, align 8, !tbaa !33
  ret ptr %6
}

; Function Attrs: mustprogress nounwind
define linkonce_odr dso_local noundef ptr @_ZNKSt10unique_ptrIN4mold9MultiGlob8TrieNodeESt14default_deleteIS2_EE3getEv(ptr noundef nonnull align 8 dereferenceable(8) %0) #4 comdat align 2 {
  %2 = alloca ptr, align 8
  store ptr %0, ptr %2, align 8, !tbaa !31
  %3 = load ptr, ptr %2, align 8
  %4 = getelementptr inbounds nuw %"class.std::unique_ptr", ptr %3, i32 0, i32 0
  %5 = call noundef ptr @_ZNKSt15__uniq_ptr_implIN4mold9MultiGlob8TrieNodeESt14default_deleteIS2_EE6_M_ptrEv(ptr noundef nonnull align 8 dereferenceable(8) %4) #3
  ret ptr %5
}

; Function Attrs: mustprogress nounwind
define linkonce_odr dso_local noundef nonnull align 8 dereferenceable(2064) ptr @_ZNKSt10unique_ptrIN4mold9MultiGlob8TrieNodeESt14default_deleteIS2_EEdeEv(ptr noundef nonnull align 8 dereferenceable(8) %0) #4 comdat align 2 {
  %2 = alloca ptr, align 8
  store ptr %0, ptr %2, align 8, !tbaa !31
  %3 = load ptr, ptr %2, align 8
  br label %4

4:                                                ; preds = %1
  br label %5

5:                                                ; preds = %4
  %6 = call noundef ptr @_ZNKSt10unique_ptrIN4mold9MultiGlob8TrieNodeESt14default_deleteIS2_EE3getEv(ptr noundef nonnull align 8 dereferenceable(8) %3) #3
  ret ptr %6
}

; Function Attrs: mustprogress nounwind
define linkonce_odr dso_local noundef zeroext i1 @_ZNKSt10unique_ptrIN4mold9MultiGlob8TrieNodeESt14default_deleteIS2_EEcvbEv(ptr noundef nonnull align 8 dereferenceable(8) %0) #4 comdat align 2 {
  %2 = alloca ptr, align 8
  store ptr %0, ptr %2, align 8, !tbaa !31
  %3 = load ptr, ptr %2, align 8
  %4 = call noundef ptr @_ZNKSt10unique_ptrIN4mold9MultiGlob8TrieNodeESt14default_deleteIS2_EE3getEv(ptr noundef nonnull align 8 dereferenceable(8) %3) #3
  %5 = icmp eq ptr %4, null
  %6 = select i1 %5, i1 false, i1 true
  ret i1 %6
}

; Function Attrs: mustprogress nounwind
define dso_local void @_ZN4mold9MultiGlob16fix_suffix_linksERNS0_8TrieNodeE(ptr noundef nonnull align 8 dereferenceable(62) %0, ptr noundef nonnull align 8 dereferenceable(2064) %1) #4 align 2 {
  %3 = alloca ptr, align 8
  %4 = alloca ptr, align 8
  %5 = alloca i64, align 8
  %6 = alloca ptr, align 8
  %7 = alloca ptr, align 8
  store ptr %0, ptr %3, align 8, !tbaa !13
  store ptr %1, ptr %4, align 8, !tbaa !33
  %8 = load ptr, ptr %3, align 8
  call void @llvm.lifetime.start.p0(i64 8, ptr %5) #3
  store i64 0, ptr %5, align 8, !tbaa !17
  br label %9

9:                                                ; preds = %57, %2
  %10 = load i64, ptr %5, align 8, !tbaa !17
  %11 = icmp slt i64 %10, 256
  br i1 %11, label %13, label %12

12:                                               ; preds = %9
  call void @llvm.lifetime.end.p0(i64 8, ptr %5) #3
  br label %60

13:                                               ; preds = %9
  %14 = load ptr, ptr %4, align 8, !tbaa !33
  %15 = getelementptr inbounds nuw %"struct.mold::MultiGlob::TrieNode", ptr %14, i32 0, i32 2
  %16 = load i64, ptr %5, align 8, !tbaa !17
  %17 = getelementptr inbounds [256 x %"class.std::unique_ptr"], ptr %15, i64 0, i64 %16
  %18 = call noundef zeroext i1 @_ZNKSt10unique_ptrIN4mold9MultiGlob8TrieNodeESt14default_deleteIS2_EEcvbEv(ptr noundef nonnull align 8 dereferenceable(8) %17) #3
  br i1 %18, label %20, label %19

19:                                               ; preds = %13
  br label %57

20:                                               ; preds = %13
  call void @llvm.lifetime.start.p0(i64 8, ptr %6) #3
  %21 = load ptr, ptr %4, align 8, !tbaa !33
  %22 = getelementptr inbounds nuw %"struct.mold::MultiGlob::TrieNode", ptr %21, i32 0, i32 2
  %23 = load i64, ptr %5, align 8, !tbaa !17
  %24 = getelementptr inbounds [256 x %"class.std::unique_ptr"], ptr %22, i64 0, i64 %23
  %25 = call noundef nonnull align 8 dereferenceable(2064) ptr @_ZNKSt10unique_ptrIN4mold9MultiGlob8TrieNodeESt14default_deleteIS2_EEdeEv(ptr noundef nonnull align 8 dereferenceable(8) %24) #3
  store ptr %25, ptr %6, align 8, !tbaa !33
  call void @llvm.lifetime.start.p0(i64 8, ptr %7) #3
  %26 = load ptr, ptr %4, align 8, !tbaa !33
  %27 = getelementptr inbounds nuw %"struct.mold::MultiGlob::TrieNode", ptr %26, i32 0, i32 1
  %28 = load ptr, ptr %27, align 8, !tbaa !72
  store ptr %28, ptr %7, align 8, !tbaa !33
  br label %29

29:                                               ; preds = %51, %20
  %30 = load ptr, ptr %7, align 8, !tbaa !33
  %31 = icmp ne ptr %30, null
  br i1 %31, label %37, label %32

32:                                               ; preds = %29
  %33 = getelementptr inbounds nuw %"class.mold::MultiGlob", ptr %8, i32 0, i32 1
  %34 = call noundef ptr @_ZNKSt10unique_ptrIN4mold9MultiGlob8TrieNodeESt14default_deleteIS2_EE3getEv(ptr noundef nonnull align 8 dereferenceable(8) %33) #3
  %35 = load ptr, ptr %6, align 8, !tbaa !33
  %36 = getelementptr inbounds nuw %"struct.mold::MultiGlob::TrieNode", ptr %35, i32 0, i32 1
  store ptr %34, ptr %36, align 8, !tbaa !72
  br label %55

37:                                               ; preds = %29
  %38 = load ptr, ptr %7, align 8, !tbaa !33
  %39 = getelementptr inbounds nuw %"struct.mold::MultiGlob::TrieNode", ptr %38, i32 0, i32 2
  %40 = load i64, ptr %5, align 8, !tbaa !17
  %41 = getelementptr inbounds [256 x %"class.std::unique_ptr"], ptr %39, i64 0, i64 %40
  %42 = call noundef zeroext i1 @_ZNKSt10unique_ptrIN4mold9MultiGlob8TrieNodeESt14default_deleteIS2_EEcvbEv(ptr noundef nonnull align 8 dereferenceable(8) %41) #3
  br i1 %42, label %43, label %51

43:                                               ; preds = %37
  %44 = load ptr, ptr %7, align 8, !tbaa !33
  %45 = getelementptr inbounds nuw %"struct.mold::MultiGlob::TrieNode", ptr %44, i32 0, i32 2
  %46 = load i64, ptr %5, align 8, !tbaa !17
  %47 = getelementptr inbounds [256 x %"class.std::unique_ptr"], ptr %45, i64 0, i64 %46
  %48 = call noundef ptr @_ZNKSt10unique_ptrIN4mold9MultiGlob8TrieNodeESt14default_deleteIS2_EE3getEv(ptr noundef nonnull align 8 dereferenceable(8) %47) #3
  %49 = load ptr, ptr %6, align 8, !tbaa !33
  %50 = getelementptr inbounds nuw %"struct.mold::MultiGlob::TrieNode", ptr %49, i32 0, i32 1
  store ptr %48, ptr %50, align 8, !tbaa !72
  br label %55

51:                                               ; preds = %37
  %52 = load ptr, ptr %7, align 8, !tbaa !33
  %53 = getelementptr inbounds nuw %"struct.mold::MultiGlob::TrieNode", ptr %52, i32 0, i32 1
  %54 = load ptr, ptr %53, align 8, !tbaa !72
  store ptr %54, ptr %7, align 8, !tbaa !33
  br label %29, !llvm.loop !100

55:                                               ; preds = %43, %32
  %56 = load ptr, ptr %6, align 8, !tbaa !33
  call void @_ZN4mold9MultiGlob16fix_suffix_linksERNS0_8TrieNodeE(ptr noundef nonnull align 8 dereferenceable(62) %8, ptr noundef nonnull align 8 dereferenceable(2064) %56)
  call void @llvm.lifetime.end.p0(i64 8, ptr %7) #3
  call void @llvm.lifetime.end.p0(i64 8, ptr %6) #3
  br label %57

57:                                               ; preds = %55, %19
  %58 = load i64, ptr %5, align 8, !tbaa !17
  %59 = add nsw i64 %58, 1
  store i64 %59, ptr %5, align 8, !tbaa !17
  br label %9, !llvm.loop !101

60:                                               ; preds = %12
  ret void
}