; Function Attrs: mustprogress nofree nosync nounwind memory(readwrite, inaccessiblemem: none)
define dso_local void @_ZN4mold9MultiGlob16fix_suffix_linksERNS0_8TrieNodeE(ptr noundef nonnull readonly align 8 captures(none) dereferenceable(62) %0, ptr noundef nonnull readonly align 8 captures(none) dereferenceable(2064) %1) local_unnamed_addr #9 align 2 {
  %3 = getelementptr inbounds nuw i8, ptr %1, i64 16
  %4 = getelementptr inbounds nuw i8, ptr %0, i64 24
  br label %6

5:                                                ; preds = %16
  ret void

6:                                                ; preds = %2, %16
  %.01619 = phi i64 [ 0, %2 ], [ %17, %16 ]
  %7 = getelementptr inbounds nuw [256 x %"class.std::unique_ptr"], ptr %3, i64 0, i64 %.01619
  %8 = load ptr, ptr %7, align 8, !tbaa !15
  %.not17 = icmp eq ptr %8, null
  br i1 %.not17, label %16, label %.preheader

.preheader:                                       ; preds = %6, %11
  %.pn = phi ptr [ %.0, %11 ], [ %1, %6 ]
  %.0.in = getelementptr inbounds nuw i8, ptr %.pn, i64 8
  %.0 = load ptr, ptr %.0.in, align 8, !tbaa !19
  %.not = icmp eq ptr %.0, null
  br i1 %.not, label %9, label %11

9:                                                ; preds = %.preheader
  %10 = load ptr, ptr %4, align 8, !tbaa !15
  br label %.loopexit

11:                                               ; preds = %.preheader
  %12 = getelementptr inbounds nuw i8, ptr %.0, i64 16
  %13 = getelementptr inbounds nuw [256 x %"class.std::unique_ptr"], ptr %12, i64 0, i64 %.01619
  %14 = load ptr, ptr %13, align 8, !tbaa !15
  %.not18 = icmp eq ptr %14, null
  br i1 %.not18, label %.preheader, label %.loopexit, !llvm.loop !111

.loopexit:                                        ; preds = %11, %9
  %.lcssa.sink = phi ptr [ %10, %9 ], [ %14, %11 ]
  %15 = getelementptr inbounds nuw i8, ptr %8, i64 8
  store ptr %.lcssa.sink, ptr %15, align 8, !tbaa !19
  tail call void @_ZN4mold9MultiGlob16fix_suffix_linksERNS0_8TrieNodeE(ptr noundef nonnull align 8 dereferenceable(62) %0, ptr noundef nonnull align 8 dereferenceable(2064) %8)
  br label %16

16:                                               ; preds = %6, %.loopexit
  %17 = add nuw nsw i64 %.01619, 1
  %exitcond.not = icmp eq i64 %17, 256
  br i1 %exitcond.not, label %5, label %6, !llvm.loop !112
}